target datalayout = "e-m:e-p270:32:32-p271:32:32-p272:64:64-i64:64-i128:128-f80:128-n8:16:32:64-S128"
target triple = "x86_64-pc-linux-gnu"

%struct.quic_stream_map_st = type { ptr, %struct.quic_stream_list_node_st, %struct.quic_stream_list_node_st, %struct.quic_stream_list_node_st, i64, i64, i64, i64, i64, ptr, ptr, ptr, ptr, ptr, i32 }
%struct.quic_stream_list_node_st = type { ptr, ptr }
%struct.quic_stream_st = type { %struct.quic_stream_list_node_st, %struct.quic_stream_list_node_st, %struct.quic_stream_list_node_st, ptr, i64, i64, i64, i64, i64, i64, i64, ptr, ptr, %struct.quic_txfc_st, %struct.quic_rxfc_st, i64 }
%struct.quic_txfc_st = type { ptr, i64, i64, i8 }
%struct.quic_rxfc_st = type { i64, i64, i64, i64, i64, i64, i64, %struct.OSSL_TIME, ptr, ptr, ptr, i8, i8, i8, i8 }
%struct.OSSL_TIME = type { i64 }

; Function Attrs: nounwind uwtable
define internal void @shutdown_flush_done(ptr noundef %0, ptr noundef %1) #0 {
  %3 = alloca ptr, align 8
  %4 = alloca ptr, align 8
  store ptr %0, ptr %3, align 8, !tbaa !3
  store ptr %1, ptr %4, align 8, !tbaa !37
  %5 = load ptr, ptr %4, align 8, !tbaa !37
  %6 = getelementptr inbounds nuw %struct.quic_stream_st, ptr %5, i32 0, i32 15
  %7 = load i64, ptr %6, align 8
  %8 = lshr i64 %7, 39
  %9 = and i64 %8, 1
  %10 = trunc i64 %9 to i32
  %11 = icmp ne i32 %10, 0
  br i1 %11, label %13, label %12

12:                                               ; preds = %2
  br label %23

13:                                               ; preds = %2
  %14 = load ptr, ptr %4, align 8, !tbaa !37
  %15 = getelementptr inbounds nuw %struct.quic_stream_st, ptr %14, i32 0, i32 15
  %16 = load i64, ptr %15, align 8
  %17 = and i64 %16, -549755813889
  %18 = or i64 %17, 0
  store i64 %18, ptr %15, align 8
  %19 = load ptr, ptr %3, align 8, !tbaa !3
  %20 = getelementptr inbounds nuw %struct.quic_stream_map_st, ptr %19, i32 0, i32 8
  %21 = load i64, ptr %20, align 8, !tbaa !31
  %22 = add i64 %21, -1
  store i64 %22, ptr %20, align 8, !tbaa !31
  br label %23

23:                                               ; preds = %13, %12
  ret void
}

; Function Attrs: nounwind uwtable
define i32 @ossl_quic_stream_map_notify_totally_acked(ptr noundef %0, ptr noundef %1) #0 {
  %3 = alloca i32, align 4
  %4 = alloca ptr, align 8
  %5 = alloca ptr, align 8
  store ptr %0, ptr %4, align 8, !tbaa !3
  store ptr %1, ptr %5, align 8, !tbaa !37
  %6 = load ptr, ptr %5, align 8, !tbaa !37
  %7 = getelementptr inbounds nuw %struct.quic_stream_st, ptr %6, i32 0, i32 15
  %8 = load i64, ptr %7, align 8
  %9 = lshr i64 %8, 8
  %10 = and i64 %9, 255
  %11 = trunc i64 %10 to i32
  switch i32 %11, label %12 [
    i32 0, label %13
    i32 3, label %14
  ]

12:                                               ; preds = %2
  br label %13

13:                                               ; preds = %2, %12
  store i32 0, ptr %3, align 4
  br label %27

14:                                               ; preds = %2
  %15 = load ptr, ptr %5, align 8, !tbaa !37
  %16 = getelementptr inbounds nuw %struct.quic_stream_st, ptr %15, i32 0, i32 15
  %17 = load i64, ptr %16, align 8
  %18 = and i64 %17, -65281
  %19 = or i64 %18, 1024
  store i64 %19, ptr %16, align 8
  %20 = load ptr, ptr %5, align 8, !tbaa !37
  %21 = getelementptr inbounds nuw %struct.quic_stream_st, ptr %20, i32 0, i32 11
  %22 = load ptr, ptr %21, align 8, !tbaa !52
  call void @ossl_quic_sstream_free(ptr noundef %22)
  %23 = load ptr, ptr %5, align 8, !tbaa !37
  %24 = getelementptr inbounds nuw %struct.quic_stream_st, ptr %23, i32 0, i32 11
  store ptr null, ptr %24, align 8, !tbaa !52
  %25 = load ptr, ptr %4, align 8, !tbaa !3
  %26 = load ptr, ptr %5, align 8, !tbaa !37
  call void @shutdown_flush_done(ptr noundef %25, ptr noundef %26)
  store i32 1, ptr %3, align 4
  br label %27

27:                                               ; preds = %14, %13
  %28 = load i32, ptr %3, align 4
  ret i32 %28
}