; Function Attrs: nounwind uwtable
define range(i32 0, 2) i32 @ossl_quic_stream_map_notify_totally_acked(ptr noundef captures(none) %0, ptr noundef captures(none) %1) local_unnamed_addr #0 {
  %3 = getelementptr inbounds nuw i8, ptr %1, i64 256
  %4 = load i64, ptr %3, align 8
  %5 = and i64 %4, 65280
  %cond = icmp eq i64 %5, 768
  br i1 %cond, label %6, label %shutdown_flush_done.exit

6:                                                ; preds = %2
  %7 = and i64 %4, -65281
  %8 = or disjoint i64 %7, 1024
  store i64 %8, ptr %3, align 8
  %9 = getelementptr inbounds nuw i8, ptr %1, i64 112
  %10 = load ptr, ptr %9, align 8, !tbaa !41
  tail call void @ossl_quic_sstream_free(ptr noundef %10) #13
  store ptr null, ptr %9, align 8, !tbaa !41
  %11 = load i64, ptr %3, align 8
  %12 = and i64 %11, 549755813888
  %.not.i = icmp eq i64 %12, 0
  br i1 %.not.i, label %shutdown_flush_done.exit, label %13

13:                                               ; preds = %6
  %14 = and i64 %11, -549755813889
  store i64 %14, ptr %3, align 8
  %15 = getelementptr inbounds nuw i8, ptr %0, i64 88
  %16 = load i64, ptr %15, align 8, !tbaa !44
  %17 = add i64 %16, -1
  store i64 %17, ptr %15, align 8, !tbaa !44
  br label %shutdown_flush_done.exit

shutdown_flush_done.exit:                         ; preds = %13, %6, %2
  %.0 = phi i32 [ 0, %2 ], [ 1, %6 ], [ 1, %13 ]
  ret i32 %.0
}